target datalayout = "e-m:e-p270:32:32-p271:32:32-p272:64:64-i64:64-i128:128-f80:128-n8:16:32:64-S128"
target triple = "x86_64-unknown-linux-gnu"

; Function Attrs: nounwind uwtable
define i32 @wc_ecc_sig_to_rs(ptr noundef %sig, i32 noundef %sigLen, ptr noundef %r, ptr noundef %rLen, ptr noundef %s, ptr noundef %sLen) #0 {
entry:
  %retval = alloca i32, align 4
  %sig.addr = alloca ptr, align 8
  %sigLen.addr = alloca i32, align 4
  %r.addr = alloca ptr, align 8
  %rLen.addr = alloca ptr, align 8
  %s.addr = alloca ptr, align 8
  %sLen.addr = alloca ptr, align 8
  store ptr %sig, ptr %sig.addr, align 8
  store i32 %sigLen, ptr %sigLen.addr, align 4
  store ptr %r, ptr %r.addr, align 8
  store ptr %rLen, ptr %rLen.addr, align 8
  store ptr %s, ptr %s.addr, align 8
  store ptr %sLen, ptr %sLen.addr, align 8
  %0 = load ptr, ptr %sig.addr, align 8
  %cmp = icmp eq ptr %0, null
  br i1 %cmp, label %if.then, label %lor.lhs.false

lor.lhs.false:                                    ; preds = %entry
  %1 = load ptr, ptr %r.addr, align 8
  %cmp1 = icmp eq ptr %1, null
  br i1 %cmp1, label %if.then, label %lor.lhs.false2

lor.lhs.false2:                                   ; preds = %lor.lhs.false
  %2 = load ptr, ptr %rLen.addr, align 8
  %cmp3 = icmp eq ptr %2, null
  br i1 %cmp3, label %if.then, label %lor.lhs.false4

lor.lhs.false4:                                   ; preds = %lor.lhs.false2
  %3 = load ptr, ptr %s.addr, align 8
  %cmp5 = icmp eq ptr %3, null
  br i1 %cmp5, label %if.then, label %lor.lhs.false6

lor.lhs.false6:                                   ; preds = %lor.lhs.false4
  %4 = load ptr, ptr %sLen.addr, align 8
  %cmp7 = icmp eq ptr %4, null
  br i1 %cmp7, label %if.then, label %if.end

if.then:                                          ; preds = %lor.lhs.false6, %lor.lhs.false4, %lor.lhs.false2, %lor.lhs.false, %entry
  store i32 -170, ptr %retval, align 4
  br label %return

if.end:                                           ; preds = %lor.lhs.false6
  %5 = load ptr, ptr %sig.addr, align 8
  %6 = load i32, ptr %sigLen.addr, align 4
  %7 = load ptr, ptr %r.addr, align 8
  %8 = load ptr, ptr %rLen.addr, align 8
  %9 = load ptr, ptr %s.addr, align 8
  %10 = load ptr, ptr %sLen.addr, align 8
  %call = call i32 @DecodeECC_DSA_Sig_Bin(ptr noundef %5, i32 noundef %6, ptr noundef %7, ptr noundef %8, ptr noundef %9, ptr noundef %10)
  store i32 %call, ptr %retval, align 4
  br label %return

return:                                           ; preds = %if.end, %if.then
  %11 = load i32, ptr %retval, align 4
  ret i32 %11
}