; Function Attrs: nounwind uwtable
define i32 @wc_ecc_sig_to_rs(ptr noundef %sig, i32 noundef %sigLen, ptr noundef %r, ptr noundef %rLen, ptr noundef %s, ptr noundef %sLen) local_unnamed_addr #2 {
entry:
  %cmp = icmp eq ptr %sig, null
  %cmp1 = icmp eq ptr %r, null
  %or.cond = or i1 %cmp, %cmp1
  %cmp3 = icmp eq ptr %rLen, null
  %or.cond1 = or i1 %or.cond, %cmp3
  %cmp5 = icmp eq ptr %s, null
  %or.cond2 = or i1 %or.cond1, %cmp5
  %cmp7 = icmp eq ptr %sLen, null
  %or.cond3 = or i1 %or.cond2, %cmp7
  br i1 %or.cond3, label %return, label %if.end

if.end:                                           ; preds = %entry
  %call = tail call i32 @DecodeECC_DSA_Sig_Bin(ptr noundef nonnull %sig, i32 noundef %sigLen, ptr noundef nonnull %r, ptr noundef nonnull %rLen, ptr noundef nonnull %s, ptr noundef nonnull %sLen) #19
  br label %return

return:                                           ; preds = %entry, %if.end
  %retval.0 = phi i32 [ %call, %if.end ], [ -170, %entry ]
  ret i32 %retval.0
}